target datalayout = "e-m:e-p270:32:32-p271:32:32-p272:64:64-i64:64-i128:128-f80:128-n8:16:32:64-S128"
target triple = "x86_64-pc-linux-gnu"

%struct.WebPDecBuffer = type { i32, i32, i32, i32, %union.anon, [4 x i32], ptr }
%union.anon = type { %struct.WebPYUVABuffer }
%struct.WebPYUVABuffer = type { ptr, ptr, ptr, ptr, i32, i32, i32, i32, i64, i64, i64, i64 }
%struct.WebPDecoderOptions = type { i32, i32, i32, i32, i32, i32, i32, i32, i32, i32, i32, i32, i32, i32, [5 x i32] }
%struct.WebPBitstreamFeatures = type { i32, i32, i32, i32, i32, [5 x i32] }
%struct.WebPDecoderConfig = type { %struct.WebPBitstreamFeatures, %struct.WebPDecBuffer, %struct.WebPDecoderOptions }

; Function Attrs: nounwind uwtable
define hidden i32 @WebPCheckCropDimensions(i32 noundef %0, i32 noundef %1, i32 noundef %2, i32 noundef %3, i32 noundef %4, i32 noundef %5) #0 {
  %7 = alloca i32, align 4
  %8 = alloca i32, align 4
  %9 = alloca i32, align 4
  %10 = alloca i32, align 4
  %11 = alloca i32, align 4
  %12 = alloca i32, align 4
  store i32 %0, ptr %7, align 4, !tbaa !7
  store i32 %1, ptr %8, align 4, !tbaa !7
  store i32 %2, ptr %9, align 4, !tbaa !7
  store i32 %3, ptr %10, align 4, !tbaa !7
  store i32 %4, ptr %11, align 4, !tbaa !7
  store i32 %5, ptr %12, align 4, !tbaa !7
  %13 = load i32, ptr %9, align 4, !tbaa !7
  %14 = load i32, ptr %10, align 4, !tbaa !7
  %15 = load i32, ptr %11, align 4, !tbaa !7
  %16 = load i32, ptr %12, align 4, !tbaa !7
  %17 = call i32 @WebPCheckCropDimensionsBasic(i32 noundef %13, i32 noundef %14, i32 noundef %15, i32 noundef %16)
  %18 = icmp ne i32 %17, 0
  br i1 %18, label %19, label %50

19:                                               ; preds = %6
  %20 = load i32, ptr %9, align 4, !tbaa !7
  %21 = load i32, ptr %7, align 4, !tbaa !7
  %22 = icmp sge i32 %20, %21
  br i1 %22, label %47, label %23

23:                                               ; preds = %19
  %24 = load i32, ptr %11, align 4, !tbaa !7
  %25 = load i32, ptr %7, align 4, !tbaa !7
  %26 = icmp sgt i32 %24, %25
  br i1 %26, label %47, label %27

27:                                               ; preds = %23
  %28 = load i32, ptr %11, align 4, !tbaa !7
  %29 = load i32, ptr %7, align 4, !tbaa !7
  %30 = load i32, ptr %9, align 4, !tbaa !7
  %31 = sub nsw i32 %29, %30
  %32 = icmp sgt i32 %28, %31
  br i1 %32, label %47, label %33

33:                                               ; preds = %27
  %34 = load i32, ptr %10, align 4, !tbaa !7
  %35 = load i32, ptr %8, align 4, !tbaa !7
  %36 = icmp sge i32 %34, %35
  br i1 %36, label %47, label %37

37:                                               ; preds = %33
  %38 = load i32, ptr %12, align 4, !tbaa !7
  %39 = load i32, ptr %8, align 4, !tbaa !7
  %40 = icmp sgt i32 %38, %39
  br i1 %40, label %47, label %41

41:                                               ; preds = %37
  %42 = load i32, ptr %12, align 4, !tbaa !7
  %43 = load i32, ptr %8, align 4, !tbaa !7
  %44 = load i32, ptr %10, align 4, !tbaa !7
  %45 = sub nsw i32 %43, %44
  %46 = icmp sgt i32 %42, %45
  br label %47

47:                                               ; preds = %41, %37, %33, %27, %23, %19
  %48 = phi i1 [ true, %37 ], [ true, %33 ], [ true, %27 ], [ true, %23 ], [ true, %19 ], [ %46, %41 ]
  %49 = xor i1 %48, true
  br label %50

50:                                               ; preds = %47, %6
  %51 = phi i1 [ false, %6 ], [ %49, %47 ]
  %52 = zext i1 %51 to i32
  ret i32 %52
}

; Function Attrs: nounwind uwtable
define internal i32 @WebPCheckCropDimensionsBasic(i32 noundef %0, i32 noundef %1, i32 noundef %2, i32 noundef %3) #0 {
  %5 = alloca i32, align 4
  %6 = alloca i32, align 4
  %7 = alloca i32, align 4
  %8 = alloca i32, align 4
  store i32 %0, ptr %5, align 4, !tbaa !7
  store i32 %1, ptr %6, align 4, !tbaa !7
  store i32 %2, ptr %7, align 4, !tbaa !7
  store i32 %3, ptr %8, align 4, !tbaa !7
  %9 = load i32, ptr %5, align 4, !tbaa !7
  %10 = icmp slt i32 %9, 0
  br i1 %10, label %20, label %11

11:                                               ; preds = %4
  %12 = load i32, ptr %6, align 4, !tbaa !7
  %13 = icmp slt i32 %12, 0
  br i1 %13, label %20, label %14

14:                                               ; preds = %11
  %15 = load i32, ptr %7, align 4, !tbaa !7
  %16 = icmp sle i32 %15, 0
  br i1 %16, label %20, label %17

17:                                               ; preds = %14
  %18 = load i32, ptr %8, align 4, !tbaa !7
  %19 = icmp sle i32 %18, 0
  br label %20

20:                                               ; preds = %17, %14, %11, %4
  %21 = phi i1 [ true, %14 ], [ true, %11 ], [ true, %4 ], [ %19, %17 ]
  %22 = xor i1 %21, true
  %23 = zext i1 %22 to i32
  ret i32 %23
}

; Function Attrs: nounwind uwtable
define i32 @WebPValidateDecoderConfig(ptr noundef %0) #0 {
  %2 = alloca i32, align 4
  %3 = alloca ptr, align 8
  %4 = alloca ptr, align 8
  %5 = alloca i32, align 4
  %6 = alloca i32, align 4
  %7 = alloca i32, align 4
  store ptr %0, ptr %3, align 8, !tbaa !92
  call void @llvm.lifetime.start.p0(i64 8, ptr %4) #7
  %8 = load ptr, ptr %3, align 8, !tbaa !92
  %9 = icmp eq ptr %8, null
  br i1 %9, label %10, label %11

10:                                               ; preds = %1
  store i32 0, ptr %2, align 4
  store i32 1, ptr %5, align 4
  br label %158

11:                                               ; preds = %1
  %12 = load ptr, ptr %3, align 8, !tbaa !92
  %13 = getelementptr inbounds nuw %struct.WebPDecoderConfig, ptr %12, i32 0, i32 1
  %14 = getelementptr inbounds nuw %struct.WebPDecBuffer, ptr %13, i32 0, i32 0
  %15 = load i32, ptr %14, align 8, !tbaa !94
  %16 = call i32 @IsValidColorspace(i32 noundef %15)
  %17 = icmp ne i32 %16, 0
  br i1 %17, label %19, label %18

18:                                               ; preds = %11
  store i32 0, ptr %2, align 4
  store i32 1, ptr %5, align 4
  br label %158

19:                                               ; preds = %11
  %20 = load ptr, ptr %3, align 8, !tbaa !92
  %21 = getelementptr inbounds nuw %struct.WebPDecoderConfig, ptr %20, i32 0, i32 2
  store ptr %21, ptr %4, align 8, !tbaa !96
  %22 = load ptr, ptr %4, align 8, !tbaa !96
  %23 = getelementptr inbounds nuw %struct.WebPDecoderOptions, ptr %22, i32 0, i32 2
  %24 = load i32, ptr %23, align 4, !tbaa !97
  %25 = icmp ne i32 %24, 0
  br i1 %25, label %26, label %42

26:                                               ; preds = %19
  %27 = load ptr, ptr %4, align 8, !tbaa !96
  %28 = getelementptr inbounds nuw %struct.WebPDecoderOptions, ptr %27, i32 0, i32 3
  %29 = load i32, ptr %28, align 4, !tbaa !98
  %30 = load ptr, ptr %4, align 8, !tbaa !96
  %31 = getelementptr inbounds nuw %struct.WebPDecoderOptions, ptr %30, i32 0, i32 4
  %32 = load i32, ptr %31, align 4, !tbaa !99
  %33 = load ptr, ptr %4, align 8, !tbaa !96
  %34 = getelementptr inbounds nuw %struct.WebPDecoderOptions, ptr %33, i32 0, i32 5
  %35 = load i32, ptr %34, align 4, !tbaa !100
  %36 = load ptr, ptr %4, align 8, !tbaa !96
  %37 = getelementptr inbounds nuw %struct.WebPDecoderOptions, ptr %36, i32 0, i32 6
  %38 = load i32, ptr %37, align 4, !tbaa !101
  %39 = call i32 @WebPCheckCropDimensionsBasic(i32 noundef %29, i32 noundef %32, i32 noundef %35, i32 noundef %38)
  %40 = icmp ne i32 %39, 0
  br i1 %40, label %42, label %41

41:                                               ; preds = %26
  store i32 0, ptr %2, align 4
  store i32 1, ptr %5, align 4
  br label %158

42:                                               ; preds = %26, %19
  %43 = load ptr, ptr %4, align 8, !tbaa !96
  %44 = getelementptr inbounds nuw %struct.WebPDecoderOptions, ptr %43, i32 0, i32 7
  %45 = load i32, ptr %44, align 4, !tbaa !102
  %46 = icmp ne i32 %45, 0
  br i1 %46, label %47, label %68

47:                                               ; preds = %42
  %48 = load ptr, ptr %4, align 8, !tbaa !96
  %49 = getelementptr inbounds nuw %struct.WebPDecoderOptions, ptr %48, i32 0, i32 8
  %50 = load i32, ptr %49, align 4, !tbaa !103
  %51 = icmp slt i32 %50, 0
  br i1 %51, label %67, label %52

52:                                               ; preds = %47
  %53 = load ptr, ptr %4, align 8, !tbaa !96
  %54 = getelementptr inbounds nuw %struct.WebPDecoderOptions, ptr %53, i32 0, i32 9
  %55 = load i32, ptr %54, align 4, !tbaa !104
  %56 = icmp slt i32 %55, 0
  br i1 %56, label %67, label %57

57:                                               ; preds = %52
  %58 = load ptr, ptr %4, align 8, !tbaa !96
  %59 = getelementptr inbounds nuw %struct.WebPDecoderOptions, ptr %58, i32 0, i32 8
  %60 = load i32, ptr %59, align 4, !tbaa !103
  %61 = icmp eq i32 %60, 0
  br i1 %61, label %62, label %68

62:                                               ; preds = %57
  %63 = load ptr, ptr %4, align 8, !tbaa !96
  %64 = getelementptr inbounds nuw %struct.WebPDecoderOptions, ptr %63, i32 0, i32 9
  %65 = load i32, ptr %64, align 4, !tbaa !104
  %66 = icmp eq i32 %65, 0
  br i1 %66, label %67, label %68

67:                                               ; preds = %62, %52, %47
  store i32 0, ptr %2, align 4
  store i32 1, ptr %5, align 4
  br label %158

68:                                               ; preds = %62, %57, %42
  %69 = load ptr, ptr %3, align 8, !tbaa !92
  %70 = getelementptr inbounds nuw %struct.WebPDecoderConfig, ptr %69, i32 0, i32 0
  %71 = getelementptr inbounds nuw %struct.WebPBitstreamFeatures, ptr %70, i32 0, i32 0
  %72 = load i32, ptr %71, align 8, !tbaa !105
  %73 = icmp sgt i32 %72, 0
  br i1 %73, label %80, label %74

74:                                               ; preds = %68
  %75 = load ptr, ptr %3, align 8, !tbaa !92
  %76 = getelementptr inbounds nuw %struct.WebPDecoderConfig, ptr %75, i32 0, i32 0
  %77 = getelementptr inbounds nuw %struct.WebPBitstreamFeatures, ptr %76, i32 0, i32 1
  %78 = load i32, ptr %77, align 4, !tbaa !106
  %79 = icmp sgt i32 %78, 0
  br i1 %79, label %80, label %136

80:                                               ; preds = %74, %68
  call void @llvm.lifetime.start.p0(i64 4, ptr %6) #7
  %81 = load ptr, ptr %4, align 8, !tbaa !96
  %82 = getelementptr inbounds nuw %struct.WebPDecoderOptions, ptr %81, i32 0, i32 8
  %83 = load i32, ptr %82, align 4, !tbaa !103
  store i32 %83, ptr %6, align 4, !tbaa !7
  call void @llvm.lifetime.start.p0(i64 4, ptr %7) #7
  %84 = load ptr, ptr %4, align 8, !tbaa !96
  %85 = getelementptr inbounds nuw %struct.WebPDecoderOptions, ptr %84, i32 0, i32 9
  %86 = load i32, ptr %85, align 4, !tbaa !104
  store i32 %86, ptr %7, align 4, !tbaa !7
  %87 = load ptr, ptr %4, align 8, !tbaa !96
  %88 = getelementptr inbounds nuw %struct.WebPDecoderOptions, ptr %87, i32 0, i32 2
  %89 = load i32, ptr %88, align 4, !tbaa !97
  %90 = icmp ne i32 %89, 0
  br i1 %90, label %91, label %115

91:                                               ; preds = %80
  %92 = load ptr, ptr %3, align 8, !tbaa !92
  %93 = getelementptr inbounds nuw %struct.WebPDecoderConfig, ptr %92, i32 0, i32 0
  %94 = getelementptr inbounds nuw %struct.WebPBitstreamFeatures, ptr %93, i32 0, i32 0
  %95 = load i32, ptr %94, align 8, !tbaa !105
  %96 = load ptr, ptr %3, align 8, !tbaa !92
  %97 = getelementptr inbounds nuw %struct.WebPDecoderConfig, ptr %96, i32 0, i32 0
  %98 = getelementptr inbounds nuw %struct.WebPBitstreamFeatures, ptr %97, i32 0, i32 1
  %99 = load i32, ptr %98, align 4, !tbaa !106
  %100 = load ptr, ptr %4, align 8, !tbaa !96
  %101 = getelementptr inbounds nuw %struct.WebPDecoderOptions, ptr %100, i32 0, i32 3
  %102 = load i32, ptr %101, align 4, !tbaa !98
  %103 = load ptr, ptr %4, align 8, !tbaa !96
  %104 = getelementptr inbounds nuw %struct.WebPDecoderOptions, ptr %103, i32 0, i32 4
  %105 = load i32, ptr %104, align 4, !tbaa !99
  %106 = load ptr, ptr %4, align 8, !tbaa !96
  %107 = getelementptr inbounds nuw %struct.WebPDecoderOptions, ptr %106, i32 0, i32 5
  %108 = load i32, ptr %107, align 4, !tbaa !100
  %109 = load ptr, ptr %4, align 8, !tbaa !96
  %110 = getelementptr inbounds nuw %struct.WebPDecoderOptions, ptr %109, i32 0, i32 6
  %111 = load i32, ptr %110, align 4, !tbaa !101
  %112 = call i32 @WebPCheckCropDimensions(i32 noundef %95, i32 noundef %99, i32 noundef %102, i32 noundef %105, i32 noundef %108, i32 noundef %111)
  %113 = icmp ne i32 %112, 0
  br i1 %113, label %115, label %114

114:                                              ; preds = %91
  store i32 0, ptr %2, align 4
  store i32 1, ptr %5, align 4
  br label %133

115:                                              ; preds = %91, %80
  %116 = load ptr, ptr %4, align 8, !tbaa !96
  %117 = getelementptr inbounds nuw %struct.WebPDecoderOptions, ptr %116, i32 0, i32 7
  %118 = load i32, ptr %117, align 4, !tbaa !102
  %119 = icmp ne i32 %118, 0
  br i1 %119, label %120, label %132

120:                                              ; preds = %115
  %121 = load ptr, ptr %3, align 8, !tbaa !92
  %122 = getelementptr inbounds nuw %struct.WebPDecoderConfig, ptr %121, i32 0, i32 0
  %123 = getelementptr inbounds nuw %struct.WebPBitstreamFeatures, ptr %122, i32 0, i32 0
  %124 = load i32, ptr %123, align 8, !tbaa !105
  %125 = load ptr, ptr %3, align 8, !tbaa !92
  %126 = getelementptr inbounds nuw %struct.WebPDecoderConfig, ptr %125, i32 0, i32 0
  %127 = getelementptr inbounds nuw %struct.WebPBitstreamFeatures, ptr %126, i32 0, i32 1
  %128 = load i32, ptr %127, align 4, !tbaa !106
  %129 = call i32 @WebPRescalerGetScaledDimensions(i32 noundef %124, i32 noundef %128, ptr noundef %6, ptr noundef %7)
  %130 = icmp ne i32 %129, 0
  br i1 %130, label %132, label %131

131:                                              ; preds = %120
  store i32 0, ptr %2, align 4
  store i32 1, ptr %5, align 4
  br label %133

132:                                              ; preds = %120, %115
  store i32 0, ptr %5, align 4
  br label %133

133:                                              ; preds = %132, %131, %114
  call void @llvm.lifetime.end.p0(i64 4, ptr %7) #7
  call void @llvm.lifetime.end.p0(i64 4, ptr %6) #7
  %134 = load i32, ptr %5, align 4
  switch i32 %134, label %158 [
    i32 0, label %135
  ]

135:                                              ; preds = %133
  br label %136

136:                                              ; preds = %135, %74
  %137 = load ptr, ptr %4, align 8, !tbaa !96
  %138 = getelementptr inbounds nuw %struct.WebPDecoderOptions, ptr %137, i32 0, i32 11
  %139 = load i32, ptr %138, align 4, !tbaa !107
  %140 = icmp slt i32 %139, 0
  br i1 %140, label %156, label %141

141:                                              ; preds = %136
  %142 = load ptr, ptr %4, align 8, !tbaa !96
  %143 = getelementptr inbounds nuw %struct.WebPDecoderOptions, ptr %142, i32 0, i32 11
  %144 = load i32, ptr %143, align 4, !tbaa !107
  %145 = icmp sgt i32 %144, 100
  br i1 %145, label %156, label %146

146:                                              ; preds = %141
  %147 = load ptr, ptr %4, align 8, !tbaa !96
  %148 = getelementptr inbounds nuw %struct.WebPDecoderOptions, ptr %147, i32 0, i32 13
  %149 = load i32, ptr %148, align 4, !tbaa !108
  %150 = icmp slt i32 %149, 0
  br i1 %150, label %156, label %151

151:                                              ; preds = %146
  %152 = load ptr, ptr %4, align 8, !tbaa !96
  %153 = getelementptr inbounds nuw %struct.WebPDecoderOptions, ptr %152, i32 0, i32 13
  %154 = load i32, ptr %153, align 4, !tbaa !108
  %155 = icmp sgt i32 %154, 100
  br i1 %155, label %156, label %157

156:                                              ; preds = %151, %146, %141, %136
  store i32 0, ptr %2, align 4
  store i32 1, ptr %5, align 4
  br label %158

157:                                              ; preds = %151
  store i32 1, ptr %2, align 4
  store i32 1, ptr %5, align 4
  br label %158

158:                                              ; preds = %157, %156, %133, %67, %41, %18, %10
  call void @llvm.lifetime.end.p0(i64 8, ptr %4) #7
  %159 = load i32, ptr %2, align 4
  ret i32 %159
}