; Function Attrs: nounwind uwtable
define range(i32 0, 2) i32 @WebPValidateDecoderConfig(ptr noundef readonly captures(address_is_null) %0) local_unnamed_addr #0 {
  %2 = alloca i32, align 4
  %3 = alloca i32, align 4
  %4 = icmp eq ptr %0, null
  br i1 %4, label %79, label %5

5:                                                ; preds = %1
  %6 = getelementptr inbounds nuw i8, ptr %0, i64 40
  %7 = load i32, ptr %6, align 8, !tbaa !75
  %8 = tail call i32 @IsValidColorspace(i32 noundef %7) #10
  %.not = icmp eq i32 %8, 0
  br i1 %.not, label %79, label %9

9:                                                ; preds = %5
  %10 = getelementptr inbounds nuw i8, ptr %0, i64 168
  %11 = load i32, ptr %10, align 4, !tbaa !77
  %.not38 = icmp eq i32 %11, 0
  br i1 %.not38, label %24, label %12

12:                                               ; preds = %9
  %13 = getelementptr inbounds nuw i8, ptr %0, i64 172
  %14 = load i32, ptr %13, align 4, !tbaa !78
  %15 = getelementptr inbounds nuw i8, ptr %0, i64 176
  %16 = load i32, ptr %15, align 4, !tbaa !79
  %17 = getelementptr inbounds nuw i8, ptr %0, i64 180
  %18 = load i32, ptr %17, align 4, !tbaa !80
  %19 = getelementptr inbounds nuw i8, ptr %0, i64 184
  %20 = load i32, ptr %19, align 4, !tbaa !81
  %21 = or i32 %16, %14
  %or.cond.i = icmp slt i32 %21, 0
  %22 = icmp slt i32 %18, 1
  %23 = icmp slt i32 %20, 1
  %.not52 = or i1 %22, %23
  %narrow.i.not = or i1 %or.cond.i, %.not52
  br i1 %narrow.i.not, label %79, label %24

24:                                               ; preds = %12, %9
  %25 = getelementptr inbounds nuw i8, ptr %0, i64 188
  %26 = load i32, ptr %25, align 4, !tbaa !82
  %.not40 = icmp eq i32 %26, 0
  br i1 %.not40, label %36, label %27

27:                                               ; preds = %24
  %28 = getelementptr inbounds nuw i8, ptr %0, i64 192
  %29 = load i32, ptr %28, align 4, !tbaa !83
  %30 = icmp slt i32 %29, 0
  br i1 %30, label %79, label %31

31:                                               ; preds = %27
  %32 = getelementptr inbounds nuw i8, ptr %0, i64 196
  %33 = load i32, ptr %32, align 4, !tbaa !84
  %34 = icmp slt i32 %33, 0
  %35 = or i32 %33, %29
  %or.cond = icmp eq i32 %35, 0
  %or.cond61 = or i1 %34, %or.cond
  br i1 %or.cond61, label %79, label %36

36:                                               ; preds = %31, %24
  %37 = load i32, ptr %0, align 8, !tbaa !85
  %38 = icmp sgt i32 %37, 0
  br i1 %38, label %43, label %39

39:                                               ; preds = %36
  %40 = getelementptr inbounds nuw i8, ptr %0, i64 4
  %41 = load i32, ptr %40, align 4, !tbaa !86
  %42 = icmp sgt i32 %41, 0
  br i1 %42, label %43, label %73

43:                                               ; preds = %39, %36
  call void @llvm.lifetime.start.p0(i64 4, ptr nonnull %2) #10
  %44 = getelementptr inbounds nuw i8, ptr %0, i64 192
  %45 = load i32, ptr %44, align 4, !tbaa !83
  store i32 %45, ptr %2, align 4, !tbaa !3
  call void @llvm.lifetime.start.p0(i64 4, ptr nonnull %3) #10
  %46 = getelementptr inbounds nuw i8, ptr %0, i64 196
  %47 = load i32, ptr %46, align 4, !tbaa !84
  store i32 %47, ptr %3, align 4, !tbaa !3
  br i1 %.not38, label %68, label %48

48:                                               ; preds = %43
  %49 = getelementptr inbounds nuw i8, ptr %0, i64 172
  %50 = load i32, ptr %49, align 4, !tbaa !78
  %51 = getelementptr inbounds nuw i8, ptr %0, i64 176
  %52 = load i32, ptr %51, align 4, !tbaa !79
  %53 = getelementptr inbounds nuw i8, ptr %0, i64 180
  %54 = load i32, ptr %53, align 4, !tbaa !80
  %55 = getelementptr inbounds nuw i8, ptr %0, i64 184
  %56 = load i32, ptr %55, align 4, !tbaa !81
  %57 = or i32 %52, %50
  %or.cond.i.i = icmp slt i32 %57, 0
  %58 = icmp slt i32 %54, 1
  %59 = icmp slt i32 %56, 1
  %.not31.i = or i1 %58, %59
  %narrow.i.not.i = or i1 %or.cond.i.i, %.not31.i
  br i1 %narrow.i.not.i, label %WebPCheckCropDimensions.exit.thread, label %WebPCheckCropDimensions.exit

WebPCheckCropDimensions.exit:                     ; preds = %48
  %60 = getelementptr inbounds nuw i8, ptr %0, i64 4
  %61 = load i32, ptr %60, align 4, !tbaa !86
  %.not23.i = icmp sge i32 %50, %37
  %62 = icmp sgt i32 %54, %37
  %or.cond.not34.not38.not43.i.not60 = or i1 %.not23.i, %62
  %63 = sub nsw i32 %37, %50
  %64 = icmp sgt i32 %54, %63
  %or.cond26.not32.not36.not41.i.not58 = select i1 %or.cond.not34.not38.not43.i.not60, i1 true, i1 %64
  %.not24.i = icmp sge i32 %52, %61
  %or.cond27.not35.not39.i.not56 = or i1 %or.cond26.not32.not36.not41.i.not58, %.not24.i
  %65 = icmp sgt i32 %56, %61
  %or.cond28.not.i.not55 = or i1 %65, %or.cond27.not35.not39.i.not56
  %66 = sub nsw i32 %61, %52
  %67 = icmp sgt i32 %56, %66
  %narrow.i47.not = select i1 %or.cond28.not.i.not55, i1 true, i1 %67
  br i1 %narrow.i47.not, label %WebPCheckCropDimensions.exit.thread, label %68

68:                                               ; preds = %WebPCheckCropDimensions.exit, %43
  br i1 %.not40, label %.critedge, label %69

69:                                               ; preds = %68
  %70 = getelementptr inbounds nuw i8, ptr %0, i64 4
  %71 = load i32, ptr %70, align 4, !tbaa !86
  %72 = call i32 @WebPRescalerGetScaledDimensions(i32 noundef %37, i32 noundef %71, ptr noundef nonnull %2, ptr noundef nonnull %3) #10
  %.not44 = icmp eq i32 %72, 0
  br i1 %.not44, label %WebPCheckCropDimensions.exit.thread, label %.critedge

.critedge:                                        ; preds = %69, %68
  call void @llvm.lifetime.end.p0(i64 4, ptr nonnull %3) #10
  call void @llvm.lifetime.end.p0(i64 4, ptr nonnull %2) #10
  br label %73

WebPCheckCropDimensions.exit.thread:              ; preds = %48, %69, %WebPCheckCropDimensions.exit
  call void @llvm.lifetime.end.p0(i64 4, ptr nonnull %3) #10
  call void @llvm.lifetime.end.p0(i64 4, ptr nonnull %2) #10
  br label %79

73:                                               ; preds = %.critedge, %39
  %74 = getelementptr inbounds nuw i8, ptr %0, i64 204
  %75 = load i32, ptr %74, align 4, !tbaa !87
  %or.cond45 = icmp ugt i32 %75, 100
  br i1 %or.cond45, label %79, label %76

76:                                               ; preds = %73
  %77 = getelementptr inbounds nuw i8, ptr %0, i64 212
  %78 = load i32, ptr %77, align 4, !tbaa !88
  %or.cond46 = icmp ult i32 %78, 101
  %spec.select = zext i1 %or.cond46 to i32
  br label %79

79:                                               ; preds = %76, %73, %WebPCheckCropDimensions.exit.thread, %27, %31, %12, %5, %1
  %.032 = phi i32 [ 0, %WebPCheckCropDimensions.exit.thread ], [ 0, %1 ], [ 0, %5 ], [ 0, %12 ], [ 0, %31 ], [ 0, %27 ], [ 0, %73 ], [ %spec.select, %76 ]
  ret i32 %.032
}